target datalayout = "e-m:e-p270:32:32-p271:32:32-p272:64:64-i64:64-i128:128-f80:128-n8:16:32:64-S128"
target triple = "x86_64-pc-linux-gnu"

%class.outputStream = type { ptr, i32, i8, i32, i64, %class.TimeStamp, ptr, i64 }
%class.TimeStamp = type { i64 }

@.str.4 = private unnamed_addr constant [9 x i8] c"        \00", align 1
@_ZZN12outputStream10date_stampEbPKcS1_E10error_time = internal constant [29 x i8] c"yyyy-mm-ddThh:mm:ss.mmm+zzzz\00", align 16

; Function Attrs: mustprogress nounwind uwtable
define hidden void @_ZN12outputStream2spEi(ptr noundef nonnull align 8 dereferenceable(56) %0, i32 noundef %1) #1 align 2 {
  %3 = alloca ptr, align 8
  %4 = alloca i32, align 4
  %5 = alloca i32, align 4
  store ptr %0, ptr %3, align 8
  store i32 %1, ptr %4, align 4
  %6 = load ptr, ptr %3, align 8
  %7 = load i32, ptr %4, align 4
  %8 = icmp slt i32 %7, 0
  br i1 %8, label %9, label %10

9:                                                ; preds = %2
  br label %30

10:                                               ; preds = %2
  br label %11

11:                                               ; preds = %20, %10
  %12 = load i32, ptr %4, align 4
  %13 = icmp sgt i32 %12, 0
  br i1 %13, label %14, label %30

14:                                               ; preds = %11
  %15 = load i32, ptr %4, align 4
  %16 = icmp sgt i32 %15, 8
  br i1 %16, label %17, label %18

17:                                               ; preds = %14
  br label %20

18:                                               ; preds = %14
  %19 = load i32, ptr %4, align 4
  br label %20

20:                                               ; preds = %18, %17
  %21 = phi i32 [ 8, %17 ], [ %19, %18 ]
  store i32 %21, ptr %5, align 4
  %22 = load i32, ptr %5, align 4
  %23 = sext i32 %22 to i64
  %24 = load ptr, ptr %6, align 8
  %25 = getelementptr inbounds ptr, ptr %24, i64 1
  %26 = load ptr, ptr %25, align 8
  call void %26(ptr noundef nonnull align 8 dereferenceable(56) %6, ptr noundef @.str.4, i64 noundef %23)
  %27 = load i32, ptr %5, align 4
  %28 = load i32, ptr %4, align 4
  %29 = sub nsw i32 %28, %27
  store i32 %29, ptr %4, align 4
  br label %11, !llvm.loop !8

30:                                               ; preds = %11, %9
  ret void
}

; Function Attrs: mustprogress nounwind uwtable
define hidden noundef nonnull align 8 dereferenceable(56) ptr @_ZN12outputStream6indentEv(ptr noundef nonnull align 8 dereferenceable(56) %0) #1 align 2 {
  %2 = alloca ptr, align 8
  store ptr %0, ptr %2, align 8
  %3 = load ptr, ptr %2, align 8
  %4 = getelementptr inbounds %class.outputStream, ptr %3, i32 0, i32 1
  %5 = load i32, ptr %4, align 8
  %6 = getelementptr inbounds %class.outputStream, ptr %3, i32 0, i32 3
  %7 = load i32, ptr %6, align 8
  %8 = sub nsw i32 %5, %7
  call void @_ZN12outputStream2spEi(ptr noundef nonnull align 8 dereferenceable(56) %3, i32 noundef %8)
  ret ptr %3
}

; Function Attrs: mustprogress nounwind uwtable
define hidden void @_ZN12outputStream9print_rawEPKcm(ptr noundef nonnull align 8 dereferenceable(56) %0, ptr noundef %1, i64 noundef %2) #1 align 2 {
  %4 = alloca ptr, align 8
  %5 = alloca ptr, align 8
  %6 = alloca i64, align 8
  store ptr %0, ptr %4, align 8
  store ptr %1, ptr %5, align 8
  store i64 %2, ptr %6, align 8
  %7 = load ptr, ptr %4, align 8
  %8 = getelementptr inbounds %class.outputStream, ptr %7, i32 0, i32 2
  %9 = load i8, ptr %8, align 4
  %10 = trunc i8 %9 to i1
  br i1 %10, label %11, label %17

11:                                               ; preds = %3
  %12 = getelementptr inbounds %class.outputStream, ptr %7, i32 0, i32 3
  %13 = load i32, ptr %12, align 8
  %14 = icmp eq i32 %13, 0
  br i1 %14, label %15, label %17

15:                                               ; preds = %11
  %16 = call noundef nonnull align 8 dereferenceable(56) ptr @_ZN12outputStream6indentEv(ptr noundef nonnull align 8 dereferenceable(56) %7)
  br label %17

17:                                               ; preds = %15, %11, %3
  %18 = load ptr, ptr %5, align 8
  %19 = load i64, ptr %6, align 8
  %20 = load ptr, ptr %7, align 8
  %21 = getelementptr inbounds ptr, ptr %20, i64 1
  %22 = load ptr, ptr %21, align 8
  call void %22(ptr noundef nonnull align 8 dereferenceable(56) %7, ptr noundef %18, i64 noundef %19)
  ret void
}

; Function Attrs: mustprogress nounwind uwtable
define linkonce_odr hidden void @_ZN12outputStream9print_rawEPKc(ptr noundef nonnull align 8 dereferenceable(56) %0, ptr noundef %1) #1 comdat align 2 {
  %3 = alloca ptr, align 8
  %4 = alloca ptr, align 8
  store ptr %0, ptr %3, align 8
  store ptr %1, ptr %4, align 8
  %5 = load ptr, ptr %3, align 8
  %6 = load ptr, ptr %4, align 8
  %7 = load ptr, ptr %4, align 8
  %8 = call i64 @strlen(ptr noundef %7) #11
  call void @_ZN12outputStream9print_rawEPKcm(ptr noundef nonnull align 8 dereferenceable(56) %5, ptr noundef %6, i64 noundef %8)
  ret void
}

; Function Attrs: mustprogress nounwind uwtable
define hidden void @_ZN12outputStream10date_stampEbPKcS1_(ptr noundef nonnull align 8 dereferenceable(56) %0, i1 noundef zeroext %1, ptr noundef %2, ptr noundef %3) #1 align 2 {
  %5 = alloca ptr, align 8
  %6 = alloca i8, align 1
  %7 = alloca ptr, align 8
  %8 = alloca ptr, align 8
  %9 = alloca [32 x i8], align 16
  %10 = alloca ptr, align 8
  store ptr %0, ptr %5, align 8
  %11 = zext i1 %1 to i8
  store i8 %11, ptr %6, align 1
  store ptr %2, ptr %7, align 8
  store ptr %3, ptr %8, align 8
  %12 = load ptr, ptr %5, align 8
  %13 = load i8, ptr %6, align 1
  %14 = trunc i8 %13 to i1
  br i1 %14, label %16, label %15

15:                                               ; preds = %4
  br label %27

16:                                               ; preds = %4
  %17 = load ptr, ptr %7, align 8
  call void @_ZN12outputStream9print_rawEPKc(ptr noundef nonnull align 8 dereferenceable(56) %12, ptr noundef %17)
  %18 = getelementptr inbounds [32 x i8], ptr %9, i64 0, i64 0
  %19 = call noundef ptr @_ZN2os12iso8601_timeEPcmb(ptr noundef %18, i64 noundef 32, i1 noundef zeroext false)
  store ptr %19, ptr %10, align 8
  %20 = load ptr, ptr %10, align 8
  %21 = icmp ne ptr %20, null
  br i1 %21, label %22, label %24

22:                                               ; preds = %16
  %23 = getelementptr inbounds [32 x i8], ptr %9, i64 0, i64 0
  call void @_ZN12outputStream9print_rawEPKc(ptr noundef nonnull align 8 dereferenceable(56) %12, ptr noundef %23)
  br label %25

24:                                               ; preds = %16
  call void @_ZN12outputStream9print_rawEPKc(ptr noundef nonnull align 8 dereferenceable(56) %12, ptr noundef @_ZZN12outputStream10date_stampEbPKcS1_E10error_time)
  br label %25

25:                                               ; preds = %24, %22
  %26 = load ptr, ptr %8, align 8
  call void @_ZN12outputStream9print_rawEPKc(ptr noundef nonnull align 8 dereferenceable(56) %12, ptr noundef %26)
  br label %27

27:                                               ; preds = %25, %15
  ret void
}