; Function Attrs: mustprogress nounwind uwtable
define hidden void @_ZN12outputStream10date_stampEbPKcS1_(ptr noundef nonnull align 8 dereferenceable(56) %0, i1 noundef zeroext %1, ptr noundef %2, ptr noundef %3) local_unnamed_addr #0 align 2 {
  %5 = alloca [32 x i8], align 16
  br i1 %1, label %6, label %77

6:                                                ; preds = %4
  %7 = tail call i64 @strlen(ptr noundef nonnull dereferenceable(1) %2) #22
  %8 = getelementptr inbounds i8, ptr %0, i64 12
  %9 = load i8, ptr %8, align 4
  %10 = trunc i8 %9 to i1
  %11 = getelementptr inbounds i8, ptr %0, i64 16
  %12 = load i32, ptr %11, align 8
  %13 = icmp eq i32 %12, 0
  %or.cond.i.i = select i1 %10, i1 %13, i1 false
  %14 = getelementptr inbounds i8, ptr %0, i64 8
  %15 = load i32, ptr %14, align 8
  %16 = icmp sgt i32 %15, 0
  %or.cond6.i.i = select i1 %or.cond.i.i, i1 %16, i1 false
  br i1 %or.cond6.i.i, label %.preheader.i.i.i.i, label %_ZN12outputStream9print_rawEPKc.exit

.preheader.i.i.i.i:                               ; preds = %6, %.preheader.i.i.i.i
  %.0.i.i.i.i = phi i32 [ %22, %.preheader.i.i.i.i ], [ %15, %6 ]
  %17 = tail call i32 @llvm.umin.i32(i32 %.0.i.i.i.i, i32 8)
  %18 = zext nneg i32 %17 to i64
  %19 = load ptr, ptr %0, align 8
  %20 = getelementptr inbounds i8, ptr %19, i64 8
  %21 = load ptr, ptr %20, align 8
  tail call void %21(ptr noundef nonnull align 8 dereferenceable(56) %0, ptr noundef nonnull @.str.4, i64 noundef %18) #21
  %22 = sub nsw i32 %.0.i.i.i.i, %17
  %.old1.i.i.i.i = icmp sgt i32 %22, 0
  br i1 %.old1.i.i.i.i, label %.preheader.i.i.i.i, label %_ZN12outputStream9print_rawEPKc.exit

_ZN12outputStream9print_rawEPKc.exit:             ; preds = %.preheader.i.i.i.i, %6
  %23 = load ptr, ptr %0, align 8
  %24 = getelementptr inbounds i8, ptr %23, i64 8
  %25 = load ptr, ptr %24, align 8
  tail call void %25(ptr noundef nonnull align 8 dereferenceable(56) %0, ptr noundef %2, i64 noundef %7) #21
  %26 = call noundef ptr @_ZN2os12iso8601_timeEPcmb(ptr noundef nonnull %5, i64 noundef 32, i1 noundef zeroext false) #21
  %.not = icmp eq ptr %26, null
  br i1 %.not, label %44, label %27

27:                                               ; preds = %_ZN12outputStream9print_rawEPKc.exit
  %28 = call i64 @strlen(ptr noundef nonnull dereferenceable(1) %5) #22
  %29 = load i8, ptr %8, align 4
  %30 = trunc i8 %29 to i1
  %31 = load i32, ptr %11, align 8
  %32 = icmp eq i32 %31, 0
  %or.cond.i.i4 = select i1 %30, i1 %32, i1 false
  %33 = load i32, ptr %14, align 8
  %34 = icmp sgt i32 %33, 0
  %or.cond6.i.i5 = select i1 %or.cond.i.i4, i1 %34, i1 false
  br i1 %or.cond6.i.i5, label %.preheader.i.i.i.i6, label %_ZN12outputStream9print_rawEPKc.exit9

.preheader.i.i.i.i6:                              ; preds = %27, %.preheader.i.i.i.i6
  %.0.i.i.i.i7 = phi i32 [ %40, %.preheader.i.i.i.i6 ], [ %33, %27 ]
  %35 = call i32 @llvm.umin.i32(i32 %.0.i.i.i.i7, i32 8)
  %36 = zext nneg i32 %35 to i64
  %37 = load ptr, ptr %0, align 8
  %38 = getelementptr inbounds i8, ptr %37, i64 8
  %39 = load ptr, ptr %38, align 8
  call void %39(ptr noundef nonnull align 8 dereferenceable(56) %0, ptr noundef nonnull @.str.4, i64 noundef %36) #21
  %40 = sub nsw i32 %.0.i.i.i.i7, %35
  %.old1.i.i.i.i8 = icmp sgt i32 %40, 0
  br i1 %.old1.i.i.i.i8, label %.preheader.i.i.i.i6, label %_ZN12outputStream9print_rawEPKc.exit9

_ZN12outputStream9print_rawEPKc.exit9:            ; preds = %.preheader.i.i.i.i6, %27
  %41 = load ptr, ptr %0, align 8
  %42 = getelementptr inbounds i8, ptr %41, i64 8
  %43 = load ptr, ptr %42, align 8
  call void %43(ptr noundef nonnull align 8 dereferenceable(56) %0, ptr noundef nonnull %5, i64 noundef %28) #21
  br label %60

44:                                               ; preds = %_ZN12outputStream9print_rawEPKc.exit
  %45 = load i8, ptr %8, align 4
  %46 = trunc i8 %45 to i1
  %47 = load i32, ptr %11, align 8
  %48 = icmp eq i32 %47, 0
  %or.cond.i.i10 = select i1 %46, i1 %48, i1 false
  %49 = load i32, ptr %14, align 8
  %50 = icmp sgt i32 %49, 0
  %or.cond6.i.i11 = select i1 %or.cond.i.i10, i1 %50, i1 false
  br i1 %or.cond6.i.i11, label %.preheader.i.i.i.i12, label %_ZN12outputStream9print_rawEPKc.exit15

.preheader.i.i.i.i12:                             ; preds = %44, %.preheader.i.i.i.i12
  %.0.i.i.i.i13 = phi i32 [ %56, %.preheader.i.i.i.i12 ], [ %49, %44 ]
  %51 = call i32 @llvm.umin.i32(i32 %.0.i.i.i.i13, i32 8)
  %52 = zext nneg i32 %51 to i64
  %53 = load ptr, ptr %0, align 8
  %54 = getelementptr inbounds i8, ptr %53, i64 8
  %55 = load ptr, ptr %54, align 8
  call void %55(ptr noundef nonnull align 8 dereferenceable(56) %0, ptr noundef nonnull @.str.4, i64 noundef %52) #21
  %56 = sub nsw i32 %.0.i.i.i.i13, %51
  %.old1.i.i.i.i14 = icmp sgt i32 %56, 0
  br i1 %.old1.i.i.i.i14, label %.preheader.i.i.i.i12, label %_ZN12outputStream9print_rawEPKc.exit15

_ZN12outputStream9print_rawEPKc.exit15:           ; preds = %.preheader.i.i.i.i12, %44
  %57 = load ptr, ptr %0, align 8
  %58 = getelementptr inbounds i8, ptr %57, i64 8
  %59 = load ptr, ptr %58, align 8
  call void %59(ptr noundef nonnull align 8 dereferenceable(56) %0, ptr noundef nonnull @_ZZN12outputStream10date_stampEbPKcS1_E10error_time, i64 noundef 28) #21
  br label %60

60:                                               ; preds = %_ZN12outputStream9print_rawEPKc.exit15, %_ZN12outputStream9print_rawEPKc.exit9
  %61 = call i64 @strlen(ptr noundef nonnull dereferenceable(1) %3) #22
  %62 = load i8, ptr %8, align 4
  %63 = trunc i8 %62 to i1
  %64 = load i32, ptr %11, align 8
  %65 = icmp eq i32 %64, 0
  %or.cond.i.i16 = select i1 %63, i1 %65, i1 false
  %66 = load i32, ptr %14, align 8
  %67 = icmp sgt i32 %66, 0
  %or.cond6.i.i17 = select i1 %or.cond.i.i16, i1 %67, i1 false
  br i1 %or.cond6.i.i17, label %.preheader.i.i.i.i18, label %_ZN12outputStream9print_rawEPKc.exit21

.preheader.i.i.i.i18:                             ; preds = %60, %.preheader.i.i.i.i18
  %.0.i.i.i.i19 = phi i32 [ %73, %.preheader.i.i.i.i18 ], [ %66, %60 ]
  %68 = call i32 @llvm.umin.i32(i32 %.0.i.i.i.i19, i32 8)
  %69 = zext nneg i32 %68 to i64
  %70 = load ptr, ptr %0, align 8
  %71 = getelementptr inbounds i8, ptr %70, i64 8
  %72 = load ptr, ptr %71, align 8
  call void %72(ptr noundef nonnull align 8 dereferenceable(56) %0, ptr noundef nonnull @.str.4, i64 noundef %69) #21
  %73 = sub nsw i32 %.0.i.i.i.i19, %68
  %.old1.i.i.i.i20 = icmp sgt i32 %73, 0
  br i1 %.old1.i.i.i.i20, label %.preheader.i.i.i.i18, label %_ZN12outputStream9print_rawEPKc.exit21

_ZN12outputStream9print_rawEPKc.exit21:           ; preds = %.preheader.i.i.i.i18, %60
  %74 = load ptr, ptr %0, align 8
  %75 = getelementptr inbounds i8, ptr %74, i64 8
  %76 = load ptr, ptr %75, align 8
  call void %76(ptr noundef nonnull align 8 dereferenceable(56) %0, ptr noundef %3, i64 noundef %61) #21
  br label %77

77:                                               ; preds = %4, %_ZN12outputStream9print_rawEPKc.exit21
  ret void
}